(dp0
S'EscenaFuente3'
p1
F14.921875
sS'EscenaMausoleo'
p2
F36.921875
sS'EscenaBajabarrapajaro'
p3
F6.078125
sS'EscenaBajabarranarizon'
p4
F6.078125
sS'EscenaBajabarracareto'
p5
F6.078125
sS'EscenaInicio'
p6
F28.6875
sS'EscenaFinal'
p7
F57.125
sS'EscenaFuentes12'
p8
F14.390625
sS'EscenaEntradaLaberinto'
p9
F8.0625
sS'EscenaCamaraInfPozo'
p10
F13.0625
sS'EscenaBajabarraelefante'
p11
F6.0625
s.