(dp0
S'paldin'
p1
F45.515625
sS'EscenaApChk'
p2
F13.96875
sS'LlaveCab1'
p3
F67.46875
sS'EscenaCripta'
p4
F18.15625
sS'LlaveCab4'
p5
F35.390625
sS'LlaveCab2'
p6
F35.359375
sS'LlaveCab3'
p7
F47.125
sS'EscenaPuertasSub'
p8
F9.09375
sS'EscenaDesapChk'
p9
F8.015625
s.